; Function Attrs: mustprogress nofree norecurse nosync nounwind sspstrong willreturn memory(argmem: write) uwtable
define void @_ZN3tbb6detail2r125thread_request_serializerC2ERNS1_17thread_dispatcherEi(ptr noundef nonnull writeonly align 8 captures(none) dereferenceable(33) initializes((0, 33)) %0, ptr noundef nonnull align 8 dereferenceable(152) %1, i32 noundef %2) unnamed_addr #0 align 2 personality ptr @__gxx_personality_v0 {
  store ptr getelementptr inbounds nuw inrange(-16, 24) (i8, ptr @_ZTVN3tbb6detail2r125thread_request_serializerE, i64 16), ptr %0, align 8, !tbaa !3
  %4 = getelementptr inbounds nuw i8, ptr %0, i64 8
  store ptr %1, ptr %4, align 8, !tbaa !6
  %5 = getelementptr inbounds nuw i8, ptr %0, i64 16
  store i32 %2, ptr %5, align 8, !tbaa !10
  %6 = getelementptr inbounds nuw i8, ptr %0, i64 20
  store i32 0, ptr %6, align 4, !tbaa !24
  %7 = getelementptr inbounds nuw i8, ptr %0, i64 24
  store i64 32768, ptr %7, align 8, !tbaa !25
  %8 = getelementptr inbounds nuw i8, ptr %0, i64 32
  store i8 0, ptr %8, align 8, !tbaa !26
  ret void
}